; Function Attrs: nounwind uwtable
define noalias nonnull ptr @l_Lake_instInhabitedLeanLibConfig___boxed(ptr noundef %0) local_unnamed_addr #1 {
  %2 = load ptr, ptr @l_Lake_instInhabitedLeanLibConfig___closed__1, align 8, !tbaa !4
  %3 = load ptr, ptr @l_Lake_instInhabitedLeanLibConfig___closed__2, align 8, !tbaa !4
  %4 = load ptr, ptr @l_Lake_instInhabitedLeanLibConfig___lambda__1___closed__1, align 8, !tbaa !4
  %5 = load ptr, ptr @l_Lake_instInhabitedLeanLibConfig___closed__3, align 8, !tbaa !4
  tail call void @lean_inc_heartbeat() #8
  %6 = tail call noalias ptr @mi_malloc_small(i64 noundef 88) #8
  %7 = icmp eq ptr %6, null
  br i1 %7, label %8, label %l_Lake_instInhabitedLeanLibConfig.exit

8:                                                ; preds = %1
  tail call void @lean_internal_panic_out_of_memory() #9
  unreachable

l_Lake_instInhabitedLeanLibConfig.exit:           ; preds = %1
  %9 = getelementptr inbounds nuw i8, ptr %6, i64 4
  %10 = getelementptr inbounds nuw i8, ptr %6, i64 80
  store i64 0, ptr %10, align 8, !tbaa !8
  store i32 1, ptr %6, align 4, !tbaa !10
  store i32 589912, ptr %9, align 4
  %11 = getelementptr inbounds nuw i8, ptr %6, i64 8
  store ptr %2, ptr %11, align 8, !tbaa !4
  %12 = getelementptr inbounds nuw i8, ptr %6, i64 16
  store ptr %3, ptr %12, align 8, !tbaa !4
  %13 = getelementptr inbounds nuw i8, ptr %6, i64 24
  store ptr %4, ptr %13, align 8, !tbaa !4
  %14 = getelementptr inbounds nuw i8, ptr %6, i64 32
  store ptr %4, ptr %14, align 8, !tbaa !4
  %15 = getelementptr inbounds nuw i8, ptr %6, i64 40
  store ptr %3, ptr %15, align 8, !tbaa !4
  %16 = getelementptr inbounds nuw i8, ptr %6, i64 48
  store ptr %4, ptr %16, align 8, !tbaa !4
  %17 = getelementptr inbounds nuw i8, ptr %6, i64 56
  store ptr %4, ptr %17, align 8, !tbaa !4
  %18 = getelementptr inbounds nuw i8, ptr %6, i64 64
  store ptr %4, ptr %18, align 8, !tbaa !4
  %19 = getelementptr inbounds nuw i8, ptr %6, i64 72
  store ptr %5, ptr %19, align 8, !tbaa !4
  %20 = ptrtoint ptr %0 to i64
  %21 = and i64 %20, 1
  %.not = icmp eq i64 %21, 0
  br i1 %.not, label %22, label %lean_dec.exit

22:                                               ; preds = %l_Lake_instInhabitedLeanLibConfig.exit
  %23 = load i32, ptr %0, align 4, !tbaa !10
  %24 = icmp sgt i32 %23, 1
  br i1 %24, label %25, label %27, !prof !13

25:                                               ; preds = %22
  %26 = add nsw i32 %23, -1
  store i32 %26, ptr %0, align 4, !tbaa !10
  br label %lean_dec.exit

27:                                               ; preds = %22
  %.not.i = icmp eq i32 %23, 0
  br i1 %.not.i, label %lean_dec.exit, label %28

28:                                               ; preds = %27
  tail call void @lean_dec_ref_cold(ptr noundef nonnull %0) #8
  br label %lean_dec.exit

lean_dec.exit:                                    ; preds = %28, %27, %25, %l_Lake_instInhabitedLeanLibConfig.exit
  ret ptr %6
}